Certificate:
    Data:
        Version: 3 (0x2)
        Serial Number: 1 (0x1)
        Signature Algorithm: sha256WithRSAEncryption
        Issuer: C=IL, ST=Haifa, L=Haifa, O=localhost, OU=localhost, CN=localhost/emailAddress=localhost
        Validity
            Not Before: Jul 18 16:38:55 2022 GMT
            Not After : Jul 18 16:38:55 2023 GMT
        Subject: C=IL, ST=Haifa, O=localhost, OU=localhost, CN=localhost/emailAddress=localhost
        Subject Public Key Info:
            Public Key Algorithm: rsaEncryption
                RSA Public-Key: (4096 bit)
                Modulus:
                    00:e5:15:f3:ac:d7:6c:1d:ab:73:e3:12:da:4d:82:
                    da:e1:e9:ba:11:b3:d9:cc:e7:05:2c:2c:74:d3:08:
                    a2:22:3f:a7:e3:12:a1:0e:fc:cf:3f:97:7f:eb:de:
                    59:4d:73:6c:f0:31:46:7f:bb:7d:90:02:8b:f2:a0:
                    85:6a:35:dc:70:ae:43:d4:47:03:e7:b9:2d:d1:58:
                    39:1b:97:19:18:9a:f1:b2:e3:9f:d1:81:6d:e4:d5:
                    6a:de:de:fb:0b:f1:12:e7:b0:d2:0a:22:4d:98:62:
                    be:3f:9d:f0:1d:73:71:58:f4:c4:96:02:4c:f6:ca:
                    ac:71:2d:44:99:46:75:c0:18:7e:e0:1b:2f:dd:45:
                    ae:95:8d:0d:36:60:58:67:af:95:38:f0:0d:03:60:
                    48:40:ee:9a:b4:79:36:52:18:6b:4c:0d:8a:0a:bb:
                    bd:63:b3:cb:07:28:d9:0c:2f:d8:44:57:8e:fd:d6:
                    55:c8:0b:f5:72:ca:d7:76:24:8a:95:f6:62:ab:8b:
                    cf:29:e2:91:29:40:35:cf:46:dc:05:b3:b6:6a:af:
                    3e:9e:a7:f0:fb:1b:1e:05:05:be:83:87:40:dc:2f:
                    4b:14:dc:df:36:1b:77:b4:92:c8:fa:58:9d:e8:cf:
                    cb:14:da:8f:af:58:f5:c1:e7:68:e3:7e:3a:1b:5e:
                    09:15:72:81:f9:17:51:6b:69:2e:59:24:22:72:c9:
                    b3:ae:cc:8b:13:98:20:d2:05:a2:88:57:14:26:39:
                    0c:63:fd:09:b6:b3:3b:1b:f2:85:bd:30:56:54:ab:
                    0a:aa:35:da:2b:b2:12:86:ca:ff:48:ca:22:23:72:
                    43:84:82:c8:a5:31:bc:8b:72:b7:79:d1:92:f3:5f:
                    86:b2:60:d1:0c:bd:9b:4b:06:53:ee:07:0c:5b:85:
                    8d:df:bb:3d:fe:ad:1f:e5:a2:ff:f5:4b:84:ee:be:
                    c7:61:31:48:84:7c:e1:11:0c:41:0b:5c:33:6e:10:
                    24:c7:6a:cf:03:93:36:4a:43:a7:0b:e9:35:07:35:
                    6a:2f:8f:cb:cd:0e:bf:81:e5:67:c8:27:f5:0b:94:
                    5c:9a:58:19:92:3d:50:85:0f:fb:fc:0d:d3:fc:e0:
                    1b:37:52:eb:e1:ca:e3:b2:97:e9:d3:28:92:cf:74:
                    a5:95:c7:cc:5c:05:09:4e:a4:b0:d1:30:97:91:a1:
                    de:91:7a:94:61:51:ad:92:02:60:2e:f1:ee:f0:a7:
                    15:87:0a:c8:da:f3:d6:e3:13:50:bf:6f:34:a0:5b:
                    51:14:7e:f9:d8:c8:d5:ad:1e:c8:3e:b4:2c:6e:e0:
                    50:e7:c9:08:d4:b4:01:b3:f8:a3:4b:49:25:b8:23:
                    ff:83:fb
                Exponent: 65537 (0x10001)
        X509v3 extensions:
            X509v3 Basic Constraints: 
                CA:FALSE
            Netscape Comment: 
                OpenSSL Generated Certificate
            X509v3 Subject Key Identifier: 
                5B:38:FC:DC:B8:A9:4B:CA:37:5C:00:1A:55:3C:56:C3:15:1F:09:DB
            X509v3 Authority Key Identifier: 
                keyid:5B:4A:DE:81:E0:78:55:37:8E:4B:0C:CA:7B:17:50:36:4F:21:45:8D

    Signature Algorithm: sha256WithRSAEncryption
         a3:d3:ca:0f:2b:af:b2:d3:78:fd:b8:7b:e3:f1:3f:08:ac:cb:
         e3:78:66:19:0c:6d:90:f9:2a:e0:6b:42:e1:c8:4e:ba:73:dd:
         29:48:c0:f8:34:82:bf:e5:2b:3d:71:a3:d0:10:0e:93:cd:2a:
         f4:7e:c9:b2:a7:c5:69:01:d9:da:63:be:91:83:87:3f:c6:a6:
         77:e3:1e:82:1d:47:18:64:5d:a0:db:71:ef:19:bd:a8:3f:ce:
         8b:18:4e:f1:83:2f:1e:e7:1b:b3:a5:61:57:15:04:18:d8:11:
         b6:d5:a4:74:29:21:27:90:97:c1:af:8d:c1:5e:81:ee:64:b2:
         d5:ae:e4:5f:18:25:07:39:35:f3:b0:12:14:16:65:f8:29:09:
         dd:ce:d3:4c:51:f2:97:57:2b:27:1d:50:a5:f1:b6:64:4a:2a:
         dd:1a:45:4e:b8:7a:ad:2f:99:26:e5:57:87:0f:bf:7b:90:ba:
         48:bb:e0:c3:f4:f8:8e:b2:15:ae:03:8b:7b:41:00:97:7d:50:
         90:ba:5f:67:79:0b:c6:5c:83:5a:51:b1:98:3d:85:97:de:a0:
         36:5b:de:6c:a6:bc:03:f2:b4:67:e7:70:67:45:77:a6:b2:19:
         be:2f:6f:0f:fb:11:e8:f0:66:6d:b3:38:34:24:80:e9:02:31:
         c3:27:e1:85:76:2a:20:5a:5f:d2:2b:79:22:f5:94:fd:d8:eb:
         c4:90:d1:37:8d:36:ae:37:a6:0e:f4:7e:b1:e5:1f:a1:a0:57:
         c8:c8:46:57:dd:fb:71:40:ad:5b:d2:9b:46:13:62:c9:08:0c:
         95:f1:85:e3:2e:44:3e:22:a4:95:0e:90:d8:0e:b2:ba:8b:e8:
         c6:13:10:15:ce:ec:81:9d:ac:ec:8a:5f:ca:02:a8:28:46:6f:
         01:c2:a2:66:95:ed:40:50:10:46:1f:c5:fe:26:14:bc:b2:90:
         db:28:96:0b:8e:ea:88:6b:24:9f:f8:a5:05:c7:d3:80:20:67:
         9d:51:99:28:a1:6d:8e:5b:bc:29:ff:e4:1a:e2:a2:08:f5:d5:
         94:54:7e:90:d0:24:8e:e6:20:0b:a9:21:69:1d:05:18:09:51:
         4c:3a:4b:2c:59:58:f0:22:0e:d4:51:cd:b7:44:5d:e2:cd:9b:
         91:41:a1:3d:f0:3d:2d:db:a8:df:18:9c:aa:c6:5b:78:47:3a:
         bb:e4:6c:23:cf:96:47:52:2f:f4:f2:06:5e:87:04:d0:b4:ff:
         12:f4:71:7a:1f:59:67:d1:a6:48:73:74:14:bb:33:3e:1d:9d:
         43:7e:8d:0e:80:ec:f6:99:67:86:5e:50:f2:43:4a:4c:e2:3c:
         af:e1:26:21:ed:9f:11:37
-----BEGIN CERTIFICATE-----
MIIF7TCCA9WgAwIBAgIBATANBgkqhkiG9w0BAQsFADCBgzELMAkGA1UEBhMCSUwx
DjAMBgNVBAgMBUhhaWZhMQ4wDAYDVQQHDAVIYWlmYTESMBAGA1UECgwJbG9jYWxo
b3N0MRIwEAYDVQQLDAlsb2NhbGhvc3QxEjAQBgNVBAMMCWxvY2FsaG9zdDEYMBYG
CSqGSIb3DQEJARYJbG9jYWxob3N0MB4XDTIyMDcxODE2Mzg1NVoXDTIzMDcxODE2
Mzg1NVowczELMAkGA1UEBhMCSUwxDjAMBgNVBAgMBUhhaWZhMRIwEAYDVQQKDAls
b2NhbGhvc3QxEjAQBgNVBAsMCWxvY2FsaG9zdDESMBAGA1UEAwwJbG9jYWxob3N0
MRgwFgYJKoZIhvcNAQkBFglsb2NhbGhvc3QwggIiMA0GCSqGSIb3DQEBAQUAA4IC
DwAwggIKAoICAQDlFfOs12wdq3PjEtpNgtrh6boRs9nM5wUsLHTTCKIiP6fjEqEO
/M8/l3/r3llNc2zwMUZ/u32QAovyoIVqNdxwrkPURwPnuS3RWDkblxkYmvGy45/R
gW3k1Wre3vsL8RLnsNIKIk2YYr4/nfAdc3FY9MSWAkz2yqxxLUSZRnXAGH7gGy/d
Ra6VjQ02YFhnr5U48A0DYEhA7pq0eTZSGGtMDYoKu71js8sHKNkML9hEV4791lXI
C/Vyytd2JIqV9mKri88p4pEpQDXPRtwFs7Zqrz6ep/D7Gx4FBb6Dh0DcL0sU3N82
G3e0ksj6WJ3oz8sU2o+vWPXB52jjfjobXgkVcoH5F1FraS5ZJCJyybOuzIsTmCDS
BaKIVxQmOQxj/Qm2szsb8oW9MFZUqwqqNdorshKGyv9IyiIjckOEgsilMbyLcrd5
0ZLzX4ayYNEMvZtLBlPuBwxbhY3fuz3+rR/lov/1S4TuvsdhMUiEfOERDEELXDNu
ECTHas8DkzZKQ6cL6TUHNWovj8vNDr+B5WfIJ/ULlFyaWBmSPVCFD/v8DdP84Bs3
UuvhyuOyl+nTKJLPdKWVx8xcBQlOpLDRMJeRod6RepRhUa2SAmAu8e7wpxWHCsja
89bjE1C/bzSgW1EUfvnYyNWtHsg+tCxu4FDnyQjUtAGz+KNLSSW4I/+D+wIDAQAB
o3sweTAJBgNVHRMEAjAAMCwGCWCGSAGG+EIBDQQfFh1PcGVuU1NMIEdlbmVyYXRl
ZCBDZXJ0aWZpY2F0ZTAdBgNVHQ4EFgQUWzj83LipS8o3XAAaVTxWwxUfCdswHwYD
VR0jBBgwFoAUW0regeB4VTeOSwzKexdQNk8hRY0wDQYJKoZIhvcNAQELBQADggIB
AKPTyg8rr7LTeP24e+PxPwisy+N4ZhkMbZD5KuBrQuHITrpz3SlIwPg0gr/lKz1x
o9AQDpPNKvR+ybKnxWkB2dpjvpGDhz/GpnfjHoIdRxhkXaDbce8Zvag/zosYTvGD
Lx7nG7OlYVcVBBjYEbbVpHQpISeQl8GvjcFege5kstWu5F8YJQc5NfOwEhQWZfgp
Cd3O00xR8pdXKycdUKXxtmRKKt0aRU64eq0vmSblV4cPv3uQuki74MP0+I6yFa4D
i3tBAJd9UJC6X2d5C8Zcg1pRsZg9hZfeoDZb3mymvAPytGfncGdFd6ayGb4vbw/7
EejwZm2zODQkgOkCMcMn4YV2KiBaX9IreSL1lP3Y68SQ0TeNNq43pg70frHlH6Gg
V8jIRlfd+3FArVvSm0YTYskIDJXxheMuRD4ipJUOkNgOsrqL6MYTEBXO7IGdrOyK
X8oCqChGbwHComaV7UBQEEYfxf4mFLyykNsolguO6ohrJJ/4pQXH04AgZ51RmSih
bY5bvCn/5Briogj11ZRUfpDQJI7mIAupIWkdBRgJUUw6SyxZWPAiDtRRzbdEXeLN
m5FBoT3wPS3bqN8YnKrGW3hHOrvkbCPPlkdSL/TyBl6HBNC0/xL0cXofWWfRpkhz
dBS7Mz4dnUN+jQ6A7PaZZ4ZeUPJDSkziPK/hJiHtnxE3
-----END CERTIFICATE-----
